Certificate:
    Data:
        Version: 3 (0x2)
        Serial Number:
            d1:fe:67:b6:5f:95:9c:32
        Signature Algorithm: sha1WithRSAEncryption
        Issuer: C=CA, ST=British Columbia, L=Vancouver, O=Mozilla Messaging Inc., CN=Mozilla Messaging Inc. (Root CA)
        Validity
            Not Before: Aug 20 17:21:44 2008 GMT
            Not After : Aug 18 17:21:44 2018 GMT
        Subject: C=CA, ST=British Columbia, L=Vancouver, O=Mozilla Messaging Inc., CN=Mozilla Messaging Inc. (Root CA)
        Subject Public Key Info:
            Public Key Algorithm: rsaEncryption
                Public-Key: (4096 bit)
                Modulus:
                    00:c9:01:d3:ff:f3:a6:4d:b2:20:bc:a3:99:7b:63:
                    2a:d8:ff:b1:52:71:bd:3d:24:f5:ed:ef:4e:51:23:
                    03:03:95:0a:41:17:96:20:ca:d5:d7:4c:cc:4d:89:
                    1e:68:ce:e5:75:31:3c:6b:52:c4:96:c7:44:7d:c6:
                    20:cf:7e:54:42:06:dd:14:40:5a:83:40:a6:f5:d7:
                    0a:18:88:34:b3:87:bc:e7:63:eb:fb:60:9a:dd:3c:
                    f9:33:27:f0:cf:52:08:ed:f0:d8:7f:35:3e:8d:70:
                    97:8d:f2:7b:95:99:40:4a:43:79:06:67:5e:c3:c6:
                    23:1b:a4:03:9a:f3:aa:03:71:39:53:b2:4e:6d:01:
                    88:6a:2d:ce:17:53:33:9d:03:62:b6:91:b5:31:6b:
                    12:de:a3:57:c8:88:db:86:a4:5d:5d:45:e5:86:7c:
                    b2:d0:39:9f:b1:11:92:7c:7f:5e:1a:fa:73:89:1e:
                    b9:14:71:cf:f4:5a:9e:93:b7:b1:3f:e9:ce:8c:7e:
                    4a:cc:e0:6a:06:1a:4c:63:50:6a:be:f1:86:c5:5b:
                    1c:5e:f8:56:09:17:45:c0:82:1b:2a:f4:35:0a:a5:
                    9e:4a:e3:e0:ff:56:92:8b:13:1a:46:04:3a:d4:b5:
                    41:51:b2:75:24:39:31:56:3d:36:0a:c0:89:3b:08:
                    a1:2a:6e:52:df:f0:22:60:ce:60:e2:6f:09:98:c2:
                    7e:b6:40:00:78:d7:80:c1:00:d9:c9:9a:06:05:a6:
                    74:c3:73:d6:11:17:c0:2b:bf:70:aa:4e:7b:f9:45:
                    8c:2d:65:35:e2:a1:9d:97:89:de:f3:b2:e8:43:dd:
                    a3:e7:95:68:8d:75:a9:7b:e0:3c:e0:31:72:22:6a:
                    d5:fc:cf:1a:d8:0b:f6:65:a9:3d:ba:89:2b:65:77:
                    d4:43:bb:2a:57:0d:aa:db:ec:8d:d8:c8:84:6f:e4:
                    c6:e0:3c:37:52:d1:2e:af:71:03:d7:09:b9:20:1f:
                    fa:8c:97:d7:e3:83:e0:1a:a4:d7:5d:83:d4:3b:f6:
                    cf:9f:b4:4e:cb:0d:36:61:d1:cf:93:6d:19:61:98:
                    cf:a3:74:91:21:2e:22:80:d1:22:65:dc:ed:ce:c6:
                    6e:7b:05:9e:95:ea:6c:38:47:2f:a2:67:87:c6:9b:
                    62:fd:ea:09:65:f1:6a:34:15:a3:e5:94:77:01:01:
                    dd:51:a1:b9:23:0d:1e:f0:af:14:74:73:11:b5:2c:
                    79:45:2c:6f:f5:76:7f:4d:4a:fc:e6:de:f6:a1:f9:
                    45:76:e6:cc:78:96:ca:34:01:25:a3:2c:99:24:db:
                    d4:44:4b:72:58:6b:4b:26:43:b7:13:0b:1c:52:60:
                    de:0d:6f
                Exponent: 65537 (0x10001)
        X509v3 extensions:
            X509v3 Subject Key Identifier: 
                92:B1:25:32:74:21:1D:E0:BE:55:D8:DF:0F:AC:6D:92:C5:66:A7:BF
            X509v3 Authority Key Identifier: 
                keyid:92:B1:25:32:74:21:1D:E0:BE:55:D8:DF:0F:AC:6D:92:C5:66:A7:BF
                DirName:/C=CA/ST=British Columbia/L=Vancouver/O=Mozilla Messaging Inc./CN=Mozilla Messaging Inc. (Root CA)
                serial:D1:FE:67:B6:5F:95:9C:32

            X509v3 Basic Constraints: critical
                CA:TRUE
            Netscape Cert Type: 
                SSL CA, S/MIME CA
            X509v3 Issuer Alternative Name: 
                <EMPTY>

            Netscape Comment: 
                TinyCA Generated Certificate
            X509v3 Key Usage: critical
                Certificate Sign, CRL Sign
    Signature Algorithm: sha1WithRSAEncryption
        90:07:30:2d:cf:73:f3:ed:04:3a:2d:39:27:08:26:31:b5:99:
        44:ed:7e:83:5b:cb:67:b2:ee:be:a7:0a:f6:73:17:93:ab:ab:
        d4:89:b7:06:64:7e:7a:d7:17:62:79:5a:35:58:02:4a:9b:10:
        f9:cf:f2:0f:c5:e4:d5:b2:58:2d:dc:d8:0b:34:90:d3:03:a7:
        d6:83:9c:cd:5a:54:ae:08:db:3f:10:bf:25:85:e7:d1:29:4d:
        64:24:45:fa:0d:bd:16:fc:00:7a:50:28:ca:64:56:6b:5e:03:
        4d:d9:dc:d1:b7:01:65:c3:6e:36:94:be:5f:4e:49:cd:b7:44:
        90:9e:57:08:33:75:a8:90:33:5e:b5:7b:ea:f8:d1:ce:85:7f:
        43:48:1a:50:31:fe:a9:1a:4c:7e:37:cc:36:5f:8b:de:ef:5c:
        4f:fb:76:84:31:5c:ef:2c:71:65:3a:f8:ac:22:c4:7c:ae:30:
        c8:4a:27:f9:04:9c:57:e1:a9:a5:13:34:04:91:e4:43:a8:05:
        47:ec:b1:0d:1f:c5:36:b2:d0:c3:ac:43:90:78:0f:1c:1a:95:
        79:12:2f:39:f8:22:16:81:57:d0:15:69:70:40:eb:89:9f:60:
        66:48:e3:2f:1e:e5:7b:1e:28:6c:72:38:a6:40:8f:fa:7a:2c:
        9d:9a:13:68:1d:84:23:1e:52:a6:8f:10:5e:b8:51:79:d3:fe:
        5d:9d:4e:0c:8f:1e:6f:11:f3:b4:3d:fb:b7:ff:8a:a4:f9:ed:
        ea:40:bc:17:42:19:eb:7f:39:5d:3f:09:49:f5:c0:49:fc:c1:
        c1:cc:c2:b6:ca:35:39:d0:1d:2d:c6:14:d0:7c:e2:c2:04:f2:
        c7:2a:eb:25:c6:50:59:04:fb:0d:bd:86:35:96:b2:f1:55:f0:
        ec:dc:b9:7c:5e:85:a8:11:16:4c:f5:7a:a8:dd:e8:52:98:80:
        1d:13:17:52:81:be:b5:ee:ce:0e:5f:9f:34:4a:f0:f2:f3:67:
        91:d2:a2:c2:02:5c:02:b9:6a:05:7c:c3:27:6b:b7:e0:52:61:
        5e:a9:22:74:e1:2a:e9:23:93:63:40:41:63:77:4e:c2:68:bd:
        b0:09:65:e4:03:9a:dd:1f:4b:20:6c:be:d9:e1:33:7a:a0:3f:
        5c:ee:f0:75:60:8c:9c:b0:9b:5b:ce:ae:cb:af:e4:89:36:fa:
        f5:cb:59:5e:56:a7:4b:cc:df:55:89:10:0d:88:25:06:a8:79:
        8f:5e:16:b0:cb:06:81:90:45:9d:93:26:90:5d:a4:f5:8e:86:
        64:cc:aa:1c:07:a4:0c:56:38:3c:fe:cf:6d:a3:65:41:94:95:
        8d:e1:79:3e:d2:85:21:db
-----BEGIN CERTIFICATE-----
MIIG5jCCBM6gAwIBAgIJANH+Z7ZflZwyMA0GCSqGSIb3DQEBBQUAMIGIMQswCQYD
VQQGEwJDQTEZMBcGA1UECBMQQnJpdGlzaCBDb2x1bWJpYTESMBAGA1UEBxMJVmFu
Y291dmVyMR8wHQYDVQQKExZNb3ppbGxhIE1lc3NhZ2luZyBJbmMuMSkwJwYDVQQD
EyBNb3ppbGxhIE1lc3NhZ2luZyBJbmMuIChSb290IENBKTAeFw0wODA4MjAxNzIx
NDRaFw0xODA4MTgxNzIxNDRaMIGIMQswCQYDVQQGEwJDQTEZMBcGA1UECBMQQnJp
dGlzaCBDb2x1bWJpYTESMBAGA1UEBxMJVmFuY291dmVyMR8wHQYDVQQKExZNb3pp
bGxhIE1lc3NhZ2luZyBJbmMuMSkwJwYDVQQDEyBNb3ppbGxhIE1lc3NhZ2luZyBJ
bmMuIChSb290IENBKTCCAiIwDQYJKoZIhvcNAQEBBQADggIPADCCAgoCggIBAMkB
0//zpk2yILyjmXtjKtj/sVJxvT0k9e3vTlEjAwOVCkEXliDK1ddMzE2JHmjO5XUx
PGtSxJbHRH3GIM9+VEIG3RRAWoNApvXXChiINLOHvOdj6/tgmt08+TMn8M9SCO3w
2H81Po1wl43ye5WZQEpDeQZnXsPGIxukA5rzqgNxOVOyTm0BiGotzhdTM50DYraR
tTFrEt6jV8iI24akXV1F5YZ8stA5n7ERknx/Xhr6c4keuRRxz/RanpO3sT/pzox+
SszgagYaTGNQar7xhsVbHF74VgkXRcCCGyr0NQqlnkrj4P9WkosTGkYEOtS1QVGy
dSQ5MVY9NgrAiTsIoSpuUt/wImDOYOJvCZjCfrZAAHjXgMEA2cmaBgWmdMNz1hEX
wCu/cKpOe/lFjC1lNeKhnZeJ3vOy6EPdo+eVaI11qXvgPOAxciJq1fzPGtgL9mWp
PbqJK2V31EO7KlcNqtvsjdjIhG/kxuA8N1LRLq9xA9cJuSAf+oyX1+OD4Bqk112D
1Dv2z5+0TssNNmHRz5NtGWGYz6N0kSEuIoDRImXc7c7GbnsFnpXqbDhHL6Jnh8ab
Yv3qCWXxajQVo+WUdwEB3VGhuSMNHvCvFHRzEbUseUUsb/V2f01K/Obe9qH5RXbm
zHiWyjQBJaMsmSTb1ERLclhrSyZDtxMLHFJg3g1vAgMBAAGjggFPMIIBSzAdBgNV
HQ4EFgQUkrElMnQhHeC+VdjfD6xtksVmp78wgb0GA1UdIwSBtTCBsoAUkrElMnQh
HeC+VdjfD6xtksVmp7+hgY6kgYswgYgxCzAJBgNVBAYTAkNBMRkwFwYDVQQIExBC
cml0aXNoIENvbHVtYmlhMRIwEAYDVQQHEwlWYW5jb3V2ZXIxHzAdBgNVBAoTFk1v
emlsbGEgTWVzc2FnaW5nIEluYy4xKTAnBgNVBAMTIE1vemlsbGEgTWVzc2FnaW5n
IEluYy4gKFJvb3QgQ0EpggkA0f5ntl+VnDIwDwYDVR0TAQH/BAUwAwEB/zARBglg
hkgBhvhCAQEEBAMCAQYwCQYDVR0SBAIwADArBglghkgBhvhCAQ0EHhYcVGlueUNB
IEdlbmVyYXRlZCBDZXJ0aWZpY2F0ZTAOBgNVHQ8BAf8EBAMCAQYwDQYJKoZIhvcN
AQEFBQADggIBAJAHMC3Pc/PtBDotOScIJjG1mUTtfoNby2ey7r6nCvZzF5Orq9SJ
twZkfnrXF2J5WjVYAkqbEPnP8g/F5NWyWC3c2As0kNMDp9aDnM1aVK4I2z8QvyWF
59EpTWQkRfoNvRb8AHpQKMpkVmteA03Z3NG3AWXDbjaUvl9OSc23RJCeVwgzdaiQ
M161e+r40c6Ff0NIGlAx/qkaTH43zDZfi97vXE/7doQxXO8scWU6+KwixHyuMMhK
J/kEnFfhqaUTNASR5EOoBUfssQ0fxTay0MOsQ5B4DxwalXkSLzn4IhaBV9AVaXBA
64mfYGZI4y8e5XseKGxyOKZAj/p6LJ2aE2gdhCMeUqaPEF64UXnT/l2dTgyPHm8R
87Q9+7f/iqT57epAvBdCGet/OV0/CUn1wEn8wcHMwrbKNTnQHS3GFNB84sIE8scq
6yXGUFkE+w29hjWWsvFV8OzcuXxehagRFkz1eqjd6FKYgB0TF1KBvrXuzg5fnzRK
8PLzZ5HSosICXAK5agV8wydrt+BSYV6pInThKukjk2NAQWN3TsJovbAJZeQDmt0f
SyBsvtnhM3qgP1zu8HVgjJywm1vOrsuv5Ik2+vXLWV5Wp0vM31WJEA2IJQaoeY9e
FrDLBoGQRZ2TJpBdpPWOhmTMqhwHpAxWODz+z22jZUGUlY3heT7ShSHb
-----END CERTIFICATE-----
Certificate:
    Data:
        Version: 3 (0x2)
        Serial Number: 1 (0x1)
        Signature Algorithm: sha1WithRSAEncryption
        Issuer: C=CA, ST=British Columbia, L=Vancouver, O=Mozilla Messaging Inc., CN=Mozilla Messaging Inc. (Root CA)
        Validity
            Not Before: Aug 20 17:23:36 2008 GMT
            Not After : Aug 18 17:23:36 2018 GMT
        Subject: C=CA, ST=British Columbia, L=Vancouver, O=Mozilla Messaging Inc., OU=Users, CN=Mozilla Messaging Inc. (Users CA)
        Subject Public Key Info:
            Public Key Algorithm: rsaEncryption
                Public-Key: (4096 bit)
                Modulus:
                    00:b0:6b:02:26:ee:06:ca:8a:8e:cc:77:28:38:36:
                    8c:d6:59:ec:78:80:80:b7:74:bb:ad:7d:d0:8e:65:
                    df:e9:0a:ed:ee:eb:82:bc:70:12:ad:bd:c9:e3:0b:
                    f1:97:30:8f:17:6b:2e:50:ba:ef:14:ab:2d:5e:99:
                    59:34:e7:c5:44:4b:86:19:6b:b7:84:49:e3:88:92:
                    9c:a2:c2:2d:f1:dc:3f:62:e5:12:75:ab:47:c4:52:
                    51:b1:f7:1a:4f:e4:62:a2:46:14:29:0d:45:55:67:
                    15:84:47:fb:c2:95:6a:82:5f:bc:3a:7b:2d:c2:47:
                    34:07:11:8c:62:b2:2b:25:d9:7f:d4:3d:20:c7:30:
                    7c:20:c5:15:d2:4b:20:25:0e:32:86:39:38:bf:d8:
                    3f:1e:9b:58:58:2d:a2:db:e5:d3:ca:65:a4:c3:ae:
                    3c:a6:a5:3c:db:d9:5e:0f:2d:12:e5:30:a0:34:3c:
                    5b:db:69:10:ad:b8:27:a2:80:24:1f:17:b0:ff:41:
                    e3:dd:ad:2b:78:94:df:d6:a8:84:9e:81:9f:98:ca:
                    52:29:dc:ec:77:73:f3:96:ce:a6:98:93:30:08:6f:
                    90:25:16:83:8e:1d:ec:1c:4b:45:26:b5:15:72:45:
                    49:18:4c:75:e3:18:a9:14:b2:65:d0:cb:fb:0b:4f:
                    6b:95:67:cc:39:69:d7:c8:41:ba:0c:9e:a3:87:09:
                    b6:52:55:f7:e5:85:eb:8f:4d:8b:53:a5:93:d4:cf:
                    60:0c:88:55:bd:79:e4:f7:8c:ff:62:24:1e:b5:6d:
                    dd:81:ff:7c:6e:26:77:76:83:ca:45:3a:6a:63:3c:
                    e8:78:f3:be:2c:86:b0:ef:5f:05:5f:70:e4:8e:b8:
                    a1:68:cf:5e:9d:b3:6f:44:51:9c:01:3e:f5:d6:53:
                    93:fa:1e:7b:72:c5:38:eb:5d:62:fd:77:45:8e:87:
                    22:da:b6:86:c8:5c:0b:95:9e:6e:82:52:c7:38:2d:
                    5f:c9:d5:3f:30:d6:ac:4f:3e:1c:9b:68:76:b2:ed:
                    52:32:c8:74:59:bd:a2:fa:e9:92:3c:bd:e6:08:31:
                    3e:aa:2b:b4:b3:a2:e7:8d:07:b6:f8:b6:03:24:8f:
                    10:99:cd:b3:11:3d:4e:2c:f3:36:df:c9:41:d6:ff:
                    91:67:d3:2e:f0:b8:5d:8f:61:68:0f:c6:f8:d3:e6:
                    35:4c:de:72:74:da:f1:46:f3:08:ca:fd:16:79:98:
                    12:1d:1d:b1:68:34:af:9f:29:04:5a:9d:9f:a7:d7:
                    5f:2c:fa:fc:c9:97:31:49:99:3d:28:cf:69:52:91:
                    5c:f9:a7:2a:64:af:48:24:b3:a8:14:c1:20:23:15:
                    94:16:e3
                Exponent: 65537 (0x10001)
        X509v3 extensions:
            X509v3 Subject Key Identifier: 
                A0:A8:F1:81:2B:FB:2F:B8:7B:46:54:F8:C7:B8:CE:79:54:54:FF:60
            X509v3 Authority Key Identifier: 
                keyid:92:B1:25:32:74:21:1D:E0:BE:55:D8:DF:0F:AC:6D:92:C5:66:A7:BF
                DirName:/C=CA/ST=British Columbia/L=Vancouver/O=Mozilla Messaging Inc./CN=Mozilla Messaging Inc. (Root CA)
                serial:D1:FE:67:B6:5F:95:9C:32

            X509v3 Basic Constraints: critical
                CA:TRUE
            Netscape Cert Type: 
                SSL CA, S/MIME CA
            X509v3 Issuer Alternative Name: 
                <EMPTY>

            Netscape Comment: 
                TinyCA Generated Certificate
            X509v3 Key Usage: critical
                Certificate Sign, CRL Sign
    Signature Algorithm: sha1WithRSAEncryption
        4f:69:b4:53:e3:98:ab:69:04:f7:4b:ed:90:4b:af:f3:37:35:
        aa:a2:88:13:8c:ae:86:61:25:cb:dd:3a:2d:04:68:39:39:ba:
        37:fe:5a:7c:90:45:66:80:f1:b2:03:b3:3e:f2:43:df:f8:81:
        90:e2:dd:6d:73:bd:38:6c:7a:02:30:4e:7a:c6:b8:6f:87:21:
        71:23:65:58:21:2a:39:cd:f9:b6:b3:9f:7d:39:c6:4b:a4:0d:
        b7:9b:cf:44:f1:57:78:36:d7:f9:2a:e1:bb:82:51:33:fb:d1:
        26:41:89:31:3a:60:02:cf:c3:ff:97:60:8a:89:ef:c9:df:3e:
        7e:e2:72:b9:18:fc:ec:70:f2:c1:55:54:c4:7f:a5:3e:e5:65:
        21:bd:cc:4c:89:c1:c0:58:a8:d2:a1:74:f6:5d:b3:c6:ff:95:
        6a:94:86:e4:fe:c5:b5:c2:88:72:f9:4d:60:fb:6a:e8:1b:0b:
        8e:ed:97:49:bf:1e:08:eb:72:bf:9d:3a:48:b9:4b:56:cb:0e:
        34:3a:ef:d7:36:61:fe:96:b6:29:c6:9b:11:6f:ab:ec:e1:3d:
        a2:4f:96:0d:a4:a4:96:e6:7d:b9:e0:92:50:01:4c:8a:36:3b:
        9d:6e:f7:02:fc:8e:20:0a:f8:6c:21:6e:49:8a:60:e0:96:5c:
        6d:d7:13:13:1d:10:09:a7:37:66:1a:d0:1e:eb:35:85:fe:6a:
        19:a8:13:5e:a9:ba:af:a1:a0:b5:ee:83:b6:6c:0b:c6:02:5c:
        8b:44:55:0e:76:a3:84:50:67:32:24:55:7a:ad:4f:42:76:be:
        f2:06:8c:08:22:28:f1:5d:d4:16:8b:a6:df:ef:9d:ea:26:36:
        3c:85:26:3f:1c:27:0e:13:d8:be:51:40:49:dd:7d:6f:53:96:
        39:f5:f7:ed:cd:5b:46:39:71:4c:2d:03:3b:8d:d1:0b:9c:55:
        5e:db:ce:c2:3d:eb:a5:1f:57:ab:b6:73:2b:98:d8:bf:58:46:
        65:9d:aa:e9:a8:7e:d2:b8:b5:3f:aa:a5:1e:76:35:8e:86:91:
        93:50:eb:ea:61:e4:93:02:f6:54:60:45:63:26:01:25:7a:18:
        eb:f4:16:dd:6e:87:59:31:ab:6f:21:20:6f:1b:5f:85:ac:f1:
        de:37:49:9b:05:49:23:6b:13:b3:2e:2a:f4:b0:83:49:bc:4d:
        92:a3:d7:78:bc:0c:78:c6:1b:2d:b7:e2:3a:d5:53:d6:8d:cb:
        72:e3:cb:f0:a6:40:db:4c:db:af:f6:11:d4:32:4c:38:e5:fa:
        95:70:bf:0c:bc:f6:c0:c0:f0:2e:72:94:38:ec:28:77:a0:db:
        73:d4:ba:e3:45:68:fb:b3
-----BEGIN CERTIFICATE-----
MIIG7zCCBNegAwIBAgIBATANBgkqhkiG9w0BAQUFADCBiDELMAkGA1UEBhMCQ0Ex
GTAXBgNVBAgTEEJyaXRpc2ggQ29sdW1iaWExEjAQBgNVBAcTCVZhbmNvdXZlcjEf
MB0GA1UEChMWTW96aWxsYSBNZXNzYWdpbmcgSW5jLjEpMCcGA1UEAxMgTW96aWxs
YSBNZXNzYWdpbmcgSW5jLiAoUm9vdCBDQSkwHhcNMDgwODIwMTcyMzM2WhcNMTgw
ODE4MTcyMzM2WjCBmTELMAkGA1UEBhMCQ0ExGTAXBgNVBAgTEEJyaXRpc2ggQ29s
dW1iaWExEjAQBgNVBAcTCVZhbmNvdXZlcjEfMB0GA1UEChMWTW96aWxsYSBNZXNz
YWdpbmcgSW5jLjEOMAwGA1UECxMFVXNlcnMxKjAoBgNVBAMTIU1vemlsbGEgTWVz
c2FnaW5nIEluYy4gKFVzZXJzIENBKTCCAiIwDQYJKoZIhvcNAQEBBQADggIPADCC
AgoCggIBALBrAibuBsqKjsx3KDg2jNZZ7HiAgLd0u6190I5l3+kK7e7rgrxwEq29
yeML8ZcwjxdrLlC67xSrLV6ZWTTnxURLhhlrt4RJ44iSnKLCLfHcP2LlEnWrR8RS
UbH3Gk/kYqJGFCkNRVVnFYRH+8KVaoJfvDp7LcJHNAcRjGKyKyXZf9Q9IMcwfCDF
FdJLICUOMoY5OL/YPx6bWFgtotvl08plpMOuPKalPNvZXg8tEuUwoDQ8W9tpEK24
J6KAJB8XsP9B492tK3iU39aohJ6Bn5jKUinc7Hdz85bOppiTMAhvkCUWg44d7BxL
RSa1FXJFSRhMdeMYqRSyZdDL+wtPa5VnzDlp18hBugyeo4cJtlJV9+WF649Ni1Ol
k9TPYAyIVb155PeM/2IkHrVt3YH/fG4md3aDykU6amM86HjzviyGsO9fBV9w5I64
oWjPXp2zb0RRnAE+9dZTk/oee3LFOOtdYv13RY6HItq2hshcC5WeboJSxzgtX8nV
PzDWrE8+HJtodrLtUjLIdFm9ovrpkjy95ggxPqortLOi540Htvi2AySPEJnNsxE9
TizzNt/JQdb/kWfTLvC4XY9haA/G+NPmNUzecnTa8UbzCMr9FnmYEh0dsWg0r58p
BFqdn6fXXyz6/MmXMUmZPSjPaVKRXPmnKmSvSCSzqBTBICMVlBbjAgMBAAGjggFP
MIIBSzAdBgNVHQ4EFgQUoKjxgSv7L7h7RlT4x7jOeVRU/2Awgb0GA1UdIwSBtTCB
soAUkrElMnQhHeC+VdjfD6xtksVmp7+hgY6kgYswgYgxCzAJBgNVBAYTAkNBMRkw
FwYDVQQIExBCcml0aXNoIENvbHVtYmlhMRIwEAYDVQQHEwlWYW5jb3V2ZXIxHzAd
BgNVBAoTFk1vemlsbGEgTWVzc2FnaW5nIEluYy4xKTAnBgNVBAMTIE1vemlsbGEg
TWVzc2FnaW5nIEluYy4gKFJvb3QgQ0EpggkA0f5ntl+VnDIwDwYDVR0TAQH/BAUw
AwEB/zARBglghkgBhvhCAQEEBAMCAQYwCQYDVR0SBAIwADArBglghkgBhvhCAQ0E
HhYcVGlueUNBIEdlbmVyYXRlZCBDZXJ0aWZpY2F0ZTAOBgNVHQ8BAf8EBAMCAQYw
DQYJKoZIhvcNAQEFBQADggIBAE9ptFPjmKtpBPdL7ZBLr/M3NaqiiBOMroZhJcvd
Oi0EaDk5ujf+WnyQRWaA8bIDsz7yQ9/4gZDi3W1zvThsegIwTnrGuG+HIXEjZVgh
KjnN+bazn305xkukDbebz0TxV3g21/kq4buCUTP70SZBiTE6YALPw/+XYIqJ78nf
Pn7icrkY/Oxw8sFVVMR/pT7lZSG9zEyJwcBYqNKhdPZds8b/lWqUhuT+xbXCiHL5
TWD7augbC47tl0m/Hgjrcr+dOki5S1bLDjQ679c2Yf6WtinGmxFvq+zhPaJPlg2k
pJbmfbngklABTIo2O51u9wL8jiAK+GwhbkmKYOCWXG3XExMdEAmnN2Ya0B7rNYX+
ahmoE16puq+hoLXug7ZsC8YCXItEVQ52o4RQZzIkVXqtT0J2vvIGjAgiKPFd1BaL
pt/vneomNjyFJj8cJw4T2L5RQEndfW9Tljn19+3NW0Y5cUwtAzuN0QucVV7bzsI9
66UfV6u2cyuY2L9YRmWdqumoftK4tT+qpR52NY6GkZNQ6+ph5JMC9lRgRWMmASV6
GOv0Ft1uh1kxq28hIG8bX4Ws8d43SZsFSSNrE7MuKvSwg0m8TZKj13i8DHjGGy23
4jrVU9aNy3Ljy/CmQNtM26/2EdQyTDjl+pVwvwy89sDA8C5ylDjsKHeg23PUuuNF
aPuz
-----END CERTIFICATE-----
